Certificate:
    Data:
        Version: 3 (0x2)
        Serial Number: 0 (0x0)
        Signature Algorithm: sha1WithRSAEncryption
        Issuer: C=AU, ST=Some-State, O=Internet Widgits Pty Ltd, CN=blesmrt
        Validity
            Not Before: Dec  3 09:44:45 2008 GMT
            Not After : Dec  1 09:44:45 2018 GMT
        Subject: C=AU, ST=Some-State, O=Internet Widgits Pty Ltd, CN=blesmrt
        Subject Public Key Info:
            Public Key Algorithm: rsaEncryption
            RSA Public Key: (4096 bit)
                Modulus (4096 bit):
                    00:a5:e9:2a:9c:5e:a6:69:18:4d:48:e2:54:3c:a0:
                    0e:71:35:95:0c:f6:ee:47:ef:f9:aa:08:a8:cc:29:
                    64:a9:33:9f:46:0a:2f:53:e4:4a:84:89:c3:bd:80:
                    44:e3:6e:44:f2:1b:01:bf:ee:a2:5c:d0:bf:72:ab:
                    58:fc:8e:2d:35:a5:2d:5f:cc:be:c4:45:1e:ff:75:
                    67:1f:71:b7:43:4e:0c:73:2b:26:ab:95:ae:e4:ec:
                    b9:96:cd:e9:b7:f5:db:df:59:55:55:c5:b0:af:49:
                    c3:ca:26:a9:a3:e9:64:43:5b:09:24:14:2c:92:09:
                    94:97:ce:f4:52:43:dc:42:75:28:29:62:7a:5e:71:
                    13:47:ef:e6:36:d3:be:ca:fc:25:5d:71:6e:65:12:
                    42:65:4e:5c:b7:11:5c:77:f7:86:60:4f:b4:f4:0c:
                    d9:d4:d0:b7:c8:07:b8:39:63:21:c1:07:fe:b6:7f:
                    b1:2f:a9:0a:df:63:b3:4e:48:61:41:28:01:0e:a6:
                    43:ed:54:23:ee:2a:5c:a8:e0:95:6f:a3:c9:e2:58:
                    ed:12:d3:7c:41:97:8b:43:18:55:6c:af:72:e2:05:
                    33:88:75:28:9b:35:2e:51:09:a1:27:51:b9:2d:c0:
                    37:67:cb:b6:87:21:fa:b4:54:ea:ba:de:4f:f9:a2:
                    47:3e:bf:ba:f9:52:93:d1:c3:9c:71:60:2b:fe:7c:
                    f5:31:48:ca:8b:ba:6b:07:cb:6d:2d:71:68:ac:db:
                    36:c7:8a:3a:d5:e3:d7:77:33:1f:27:4e:55:f3:08:
                    1e:fe:c8:dc:5c:6a:86:27:8e:92:a8:16:21:a0:4a:
                    75:bb:db:36:78:54:9e:3d:4a:f8:7b:b7:72:1f:41:
                    f4:fd:c1:82:fa:ac:07:2d:32:21:c4:c7:7a:a7:58:
                    da:b8:bd:96:38:3a:17:c1:12:5f:56:18:1b:5e:b0:
                    71:2e:6d:58:4c:c2:1a:42:42:1c:93:b8:19:b2:51:
                    3c:b8:07:af:88:d5:c0:06:44:cd:e3:b6:77:58:21:
                    b9:43:5b:fd:48:24:4d:cb:11:97:79:eb:ed:66:ad:
                    18:d4:06:6b:e4:a5:d7:c4:5b:16:a5:b3:76:b5:a9:
                    ff:dd:c8:93:82:c0:36:b9:4a:d8:53:21:89:ae:8e:
                    0b:cd:71:38:63:b7:15:1f:1b:87:7c:99:25:80:2c:
                    61:6e:a1:9e:4c:f5:ea:4b:aa:d2:37:26:69:b6:41:
                    8e:38:99:40:1a:85:bb:f0:ce:fb:a7:1e:ac:03:aa:
                    d9:e5:64:48:b3:ae:30:fa:23:0a:2d:1e:df:d8:6e:
                    a1:63:20:8f:ac:34:9c:e7:b2:b7:a4:59:63:65:4a:
                    c9:c8:7f
                Exponent: 65537 (0x10001)
        X509v3 extensions:
            X509v3 Basic Constraints: 
                CA:FALSE
            Netscape Comment: 
                OpenSSL Generated Certificate
            X509v3 Subject Key Identifier: 
                A9:BA:AC:8E:D8:CE:2E:10:5D:AE:93:42:BB:C2:62:B3:D0:FE:25:0A
            X509v3 Authority Key Identifier: 
                keyid:A9:BA:AC:8E:D8:CE:2E:10:5D:AE:93:42:BB:C2:62:B3:D0:FE:25:0A

    Signature Algorithm: sha1WithRSAEncryption
        82:27:a3:b7:ff:7a:2a:b3:19:6a:de:2d:8e:d4:67:c3:6f:9f:
        c4:66:96:45:66:c6:57:f4:27:20:a2:b6:72:da:61:39:0b:7f:
        72:ff:dd:b2:5f:d3:27:26:57:76:ef:70:6c:45:0b:d9:9d:55:
        ed:d1:b7:a1:fb:1e:a8:30:03:a8:94:14:d4:2f:a6:e7:90:55:
        26:9d:69:3e:0e:a7:24:ff:c3:5c:f8:d5:f5:c5:c2:c0:8d:fb:
        8c:70:d0:5a:b0:0e:0f:ff:11:b7:ad:62:5b:68:f4:15:c3:1c:
        84:5f:29:d7:86:52:65:d4:47:f4:17:d1:b0:21:d8:19:56:32:
        7b:20:85:78:c9:85:90:94:b3:3f:20:ca:7e:97:e0:3a:38:70:
        5d:e8:70:2a:71:f3:cb:d6:3f:36:7f:ba:a1:1b:33:a7:24:bc:
        f7:df:79:11:25:bb:68:6f:7d:00:05:e5:ac:4f:23:21:c6:28:
        51:8b:0f:bc:25:b9:0f:68:cd:49:7c:18:28:3c:a8:46:81:d9:
        55:6b:98:e6:d5:61:a0:86:24:08:24:e5:7e:ea:9a:13:a2:9c:
        53:7e:47:9c:59:a7:a9:ea:94:c5:6a:26:bc:8b:b2:4b:6e:c4:
        7f:62:2e:ae:af:c3:00:04:c2:ab:22:7a:ac:c3:50:5b:49:1f:
        0b:c0:58:58:51:22:37:2e:3c:44:51:86:7b:ba:a5:1e:57:64:
        27:4b:39:c9:d4:f6:d3:ba:a2:48:e2:5f:66:36:4b:58:19:9b:
        79:36:d5:6d:b7:5d:11:f8:9a:bd:35:6f:de:a8:34:1b:ec:a5:
        b9:4d:e8:e5:e5:16:93:62:88:e8:1a:1d:de:32:51:ca:87:d4:
        76:c3:15:02:3e:e9:9d:ca:b9:80:b5:3c:99:c7:81:9f:06:64:
        d5:69:77:f9:ad:5c:7d:04:a7:34:40:a1:b8:d8:d3:10:ce:68:
        0d:3e:09:38:13:6d:a5:5a:cf:f6:92:26:01:8c:e7:a8:0c:af:
        fb:8b:4e:9e:28:7b:30:17:01:20:26:d4:f7:47:d5:db:76:8a:
        15:90:8c:4c:30:1a:69:45:dd:ba:8d:a1:30:19:22:51:a9:c6:
        80:31:60:a9:c4:4e:1d:6e:c5:cb:e9:31:3f:f0:49:df:09:ae:
        ba:b2:5b:6e:26:29:46:ab:47:78:9e:4c:e0:ea:83:53:07:8e:
        c0:f9:1a:69:77:2f:a9:87:2d:44:b5:4a:b0:c9:f3:35:50:e5:
        b4:43:e6:bd:f5:2f:1c:9a:e6:d5:4e:f7:d2:82:ef:c0:bf:bf:
        19:c2:98:94:17:2a:11:a8:a5:ed:bd:7e:03:d6:02:6d:95:03:
        53:1d:68:c3:6a:0c:8b:e5
-----BEGIN CERTIFICATE-----
MIIFpDCCA4ygAwIBAgIBADANBgkqhkiG9w0BAQUFADBXMQswCQYDVQQGEwJBVTET
MBEGA1UECBMKU29tZS1TdGF0ZTEhMB8GA1UEChMYSW50ZXJuZXQgV2lkZ2l0cyBQ
dHkgTHRkMRAwDgYDVQQDEwdibGVzbXJ0MB4XDTA4MTIwMzA5NDQ0NVoXDTE4MTIw
MTA5NDQ0NVowVzELMAkGA1UEBhMCQVUxEzARBgNVBAgTClNvbWUtU3RhdGUxITAf
BgNVBAoTGEludGVybmV0IFdpZGdpdHMgUHR5IEx0ZDEQMA4GA1UEAxMHYmxlc21y
dDCCAiIwDQYJKoZIhvcNAQEBBQADggIPADCCAgoCggIBAKXpKpxepmkYTUjiVDyg
DnE1lQz27kfv+aoIqMwpZKkzn0YKL1PkSoSJw72ARONuRPIbAb/uolzQv3KrWPyO
LTWlLV/MvsRFHv91Zx9xt0NODHMrJquVruTsuZbN6bf1299ZVVXFsK9Jw8omqaPp
ZENbCSQULJIJlJfO9FJD3EJ1KCliel5xE0fv5jbTvsr8JV1xbmUSQmVOXLcRXHf3
hmBPtPQM2dTQt8gHuDljIcEH/rZ/sS+pCt9js05IYUEoAQ6mQ+1UI+4qXKjglW+j
yeJY7RLTfEGXi0MYVWyvcuIFM4h1KJs1LlEJoSdRuS3AN2fLtoch+rRU6rreT/mi
Rz6/uvlSk9HDnHFgK/589TFIyou6awfLbS1xaKzbNseKOtXj13czHydOVfMIHv7I
3FxqhieOkqgWIaBKdbvbNnhUnj1K+Hu3ch9B9P3BgvqsBy0yIcTHeqdY2ri9ljg6
F8ESX1YYG16wcS5tWEzCGkJCHJO4GbJRPLgHr4jVwAZEzeO2d1ghuUNb/UgkTcsR
l3nr7WatGNQGa+Sl18RbFqWzdrWp/93Ik4LANrlK2FMhia6OC81xOGO3FR8bh3yZ
JYAsYW6hnkz16kuq0jcmabZBjjiZQBqFu/DO+6cerAOq2eVkSLOuMPojCi0e39hu
oWMgj6w0nOeyt6RZY2VKych/AgMBAAGjezB5MAkGA1UdEwQCMAAwLAYJYIZIAYb4
QgENBB8WHU9wZW5TU0wgR2VuZXJhdGVkIENlcnRpZmljYXRlMB0GA1UdDgQWBBSp
uqyO2M4uEF2uk0K7wmKz0P4lCjAfBgNVHSMEGDAWgBSpuqyO2M4uEF2uk0K7wmKz
0P4lCjANBgkqhkiG9w0BAQUFAAOCAgEAgiejt/96KrMZat4tjtRnw2+fxGaWRWbG
V/QnIKK2ctphOQt/cv/dsl/TJyZXdu9wbEUL2Z1V7dG3ofseqDADqJQU1C+m55BV
Jp1pPg6nJP/DXPjV9cXCwI37jHDQWrAOD/8Rt61iW2j0FcMchF8p14ZSZdRH9BfR
sCHYGVYyeyCFeMmFkJSzPyDKfpfgOjhwXehwKnHzy9Y/Nn+6oRszpyS89995ESW7
aG99AAXlrE8jIcYoUYsPvCW5D2jNSXwYKDyoRoHZVWuY5tVhoIYkCCTlfuqaE6Kc
U35HnFmnqeqUxWomvIuyS27Ef2Iurq/DAATCqyJ6rMNQW0kfC8BYWFEiNy48RFGG
e7qlHldkJ0s5ydT207qiSOJfZjZLWBmbeTbVbbddEfiavTVv3qg0G+yluU3o5eUW
k2KI6Bod3jJRyofUdsMVAj7pncq5gLU8mceBnwZk1Wl3+a1cfQSnNEChuNjTEM5o
DT4JOBNtpVrP9pImAYznqAyv+4tOnih7MBcBICbU90fV23aKFZCMTDAaaUXduo2h
MBkiUanGgDFgqcROHW7Fy+kxP/BJ3wmuurJbbiYpRqtHeJ5M4OqDUweOwPkaaXcv
qYctRLVKsMnzNVDltEPmvfUvHJrm1U730oLvwL+/GcKYlBcqEail7b1+A9YCbZUD
Ux1ow2oMi+U=
-----END CERTIFICATE-----
