Certificate:
    Data:
        Version: 3 (0x2)
        Serial Number: 1 (0x1)
        Signature Algorithm: sha1WithRSAEncryption
        Issuer: C=AU, ST=Some-State, O=Internet Widgits Pty Ltd, CN=blesmrt
        Validity
            Not Before: Dec  3 09:45:22 2008 GMT
            Not After : Dec  1 09:45:22 2018 GMT
        Subject: C=AU, ST=Some-State, O=Internet Widgits Pty Ltd, CN=exa
        Subject Public Key Info:
            Public Key Algorithm: rsaEncryption
            RSA Public Key: (2048 bit)
                Modulus (2048 bit):
                    00:eb:bf:ea:9e:6a:13:c4:45:a6:65:01:d6:1a:b0:
                    8c:f1:a1:0d:2d:c5:22:97:73:ab:1e:cf:26:c6:26:
                    90:0a:11:de:fe:fc:79:49:e9:3c:48:82:ea:26:88:
                    01:0e:94:53:64:13:f9:d5:c4:42:8b:99:9d:7a:10:
                    d0:71:c1:48:e7:ef:35:51:be:04:5a:a2:08:56:9b:
                    77:07:73:c5:c0:ec:9a:1a:2d:cb:20:3b:10:8b:f6:
                    2c:62:f7:88:e0:f0:b5:70:5e:28:9d:58:d2:54:06:
                    b3:d1:b5:2e:b5:be:a4:d9:82:e7:f4:d6:8d:74:b0:
                    19:40:b2:bf:95:d9:87:0f:88:f5:c8:61:58:34:8d:
                    a1:31:f9:08:a8:ce:bd:af:5e:87:bd:da:94:a7:0d:
                    c5:8a:fe:0d:c5:24:82:ef:66:5c:3d:b2:52:54:be:
                    76:6f:4c:4a:c6:e5:46:3c:56:9c:32:ab:08:ba:f3:
                    52:79:ed:09:4a:c7:58:75:c1:ad:7f:ea:b9:be:0d:
                    77:9e:e9:72:95:91:00:60:55:df:87:84:d6:26:c0:
                    0e:39:4a:85:2f:44:f1:eb:47:20:7a:38:3e:0f:c6:
                    5b:ee:42:3c:22:7c:4b:8a:58:8e:7b:fb:0c:7a:d4:
                    b7:b4:50:73:3b:b0:85:e0:8b:40:21:7f:df:ac:85:
                    e3:49
                Exponent: 65537 (0x10001)
        X509v3 extensions:
            X509v3 Basic Constraints: 
                CA:FALSE
            Netscape Comment: 
                OpenSSL Generated Certificate
            X509v3 Subject Key Identifier: 
                8C:15:8F:58:DA:A1:6B:66:AA:AB:90:2F:FF:F2:18:21:88:B0:43:62
            X509v3 Authority Key Identifier: 
                keyid:A9:BA:AC:8E:D8:CE:2E:10:5D:AE:93:42:BB:C2:62:B3:D0:FE:25:0A

    Signature Algorithm: sha1WithRSAEncryption
        2f:d1:47:f6:6e:37:2f:2c:d2:77:dc:b4:d6:a2:d8:d0:9e:28:
        2c:66:eb:1c:36:6b:7a:b2:5f:00:57:59:9b:9c:7e:02:22:d1:
        7a:7f:25:93:c2:ab:63:db:aa:67:ee:dd:ba:a8:c3:77:5d:3e:
        24:6a:09:2b:07:a9:a6:5d:9b:20:54:26:5b:03:97:17:ae:39:
        b4:b3:27:7e:c7:58:66:38:ba:e7:dc:e2:50:47:3f:e7:df:7b:
        dc:95:61:36:fc:f3:90:7d:0f:6c:9a:76:3f:ef:59:46:56:59:
        99:a8:6e:e2:fe:bd:51:45:74:5e:97:85:dd:fd:66:37:b3:30:
        3e:aa:b0:a2:8a:4f:65:89:13:ea:62:e7:47:dd:f7:1e:bd:7d:
        58:e8:b6:12:94:fc:fb:d3:0c:51:9f:a0:ef:f1:1c:94:e7:c0:
        8e:83:a1:02:3f:17:cf:a7:5c:b5:d0:46:c4:04:0e:32:09:88:
        a3:53:01:62:e9:e8:fc:62:1b:5b:67:a3:6f:05:0a:f0:c6:b0:
        ae:cd:36:ef:4e:ff:8e:67:6f:f8:74:2d:ca:34:37:01:43:94:
        da:64:3c:cd:d9:3e:d8:31:b1:cf:c6:00:9d:46:df:92:11:88:
        56:44:73:f5:ae:d1:67:73:6a:3e:ad:fa:81:e8:9a:e8:85:2a:
        03:09:77:42:43:ae:0a:6a:e1:6e:bf:0d:a2:b4:95:d7:59:86:
        51:fe:e1:eb:c3:b6:38:7a:84:98:6c:96:a9:61:6a:9b:46:9c:
        a6:30:ba:84:63:9a:f3:7d:e2:95:9e:1e:bb:d4:97:09:16:7c:
        4b:5c:51:96:21:53:21:25:16:23:8c:d6:6c:16:23:93:c9:fd:
        76:3e:c1:08:3c:6c:9a:c7:1b:6b:46:59:b8:e2:e4:b4:3d:d1:
        90:8e:05:8c:c1:b8:90:45:1e:ad:05:04:44:84:ee:91:f6:40:
        45:eb:df:5a:5c:f4:fc:23:b5:d3:aa:31:44:fa:7b:f7:fc:87:
        d1:39:15:2b:7e:19:5e:18:5d:45:ab:30:00:13:e2:dd:d2:83:
        f0:6d:c1:c4:fd:c6:b8:53:5d:91:23:8a:88:3d:60:97:c0:50:
        f5:b0:27:b5:c2:53:9a:55:f0:c2:5c:28:ea:af:4f:ea:e3:b3:
        ce:16:e9:60:97:0c:f2:59:7d:46:39:1b:74:b6:8f:09:86:35:
        ba:3f:9a:b5:4e:72:e5:7b:99:29:07:46:74:8c:a5:d7:41:72:
        01:91:d5:7f:40:94:04:f7:95:b8:f8:fd:99:ec:3a:99:7f:df:
        3b:71:d5:fa:4d:18:f2:19:85:b3:a2:2b:21:9b:d4:27:a1:3b:
        85:ce:67:e8:e5:66:5e:6b
-----BEGIN CERTIFICATE-----
MIIEoDCCAoigAwIBAgIBATANBgkqhkiG9w0BAQUFADBXMQswCQYDVQQGEwJBVTET
MBEGA1UECBMKU29tZS1TdGF0ZTEhMB8GA1UEChMYSW50ZXJuZXQgV2lkZ2l0cyBQ
dHkgTHRkMRAwDgYDVQQDEwdibGVzbXJ0MB4XDTA4MTIwMzA5NDUyMloXDTE4MTIw
MTA5NDUyMlowUzELMAkGA1UEBhMCQVUxEzARBgNVBAgTClNvbWUtU3RhdGUxITAf
BgNVBAoTGEludGVybmV0IFdpZGdpdHMgUHR5IEx0ZDEMMAoGA1UEAxMDZXhhMIIB
IjANBgkqhkiG9w0BAQEFAAOCAQ8AMIIBCgKCAQEA67/qnmoTxEWmZQHWGrCM8aEN
LcUil3OrHs8mxiaQChHe/vx5Sek8SILqJogBDpRTZBP51cRCi5mdehDQccFI5+81
Ub4EWqIIVpt3B3PFwOyaGi3LIDsQi/YsYveI4PC1cF4onVjSVAaz0bUutb6k2YLn
9NaNdLAZQLK/ldmHD4j1yGFYNI2hMfkIqM69r16HvdqUpw3Fiv4NxSSC72ZcPbJS
VL52b0xKxuVGPFacMqsIuvNSee0JSsdYdcGtf+q5vg13nulylZEAYFXfh4TWJsAO
OUqFL0Tx60cgejg+D8Zb7kI8InxLiliOe/sMetS3tFBzO7CF4ItAIX/frIXjSQID
AQABo3sweTAJBgNVHRMEAjAAMCwGCWCGSAGG+EIBDQQfFh1PcGVuU1NMIEdlbmVy
YXRlZCBDZXJ0aWZpY2F0ZTAdBgNVHQ4EFgQUjBWPWNqha2aqq5Av//IYIYiwQ2Iw
HwYDVR0jBBgwFoAUqbqsjtjOLhBdrpNCu8Jis9D+JQowDQYJKoZIhvcNAQEFBQAD
ggIBAC/RR/ZuNy8s0nfctNai2NCeKCxm6xw2a3qyXwBXWZucfgIi0Xp/JZPCq2Pb
qmfu3bqow3ddPiRqCSsHqaZdmyBUJlsDlxeuObSzJ37HWGY4uufc4lBHP+ffe9yV
YTb885B9D2yadj/vWUZWWZmobuL+vVFFdF6Xhd39ZjezMD6qsKKKT2WJE+pi50fd
9x69fVjothKU/PvTDFGfoO/xHJTnwI6DoQI/F8+nXLXQRsQEDjIJiKNTAWLp6Pxi
G1tno28FCvDGsK7NNu9O/45nb/h0Lco0NwFDlNpkPM3ZPtgxsc/GAJ1G35IRiFZE
c/Wu0Wdzaj6t+oHomuiFKgMJd0JDrgpq4W6/DaK0lddZhlH+4evDtjh6hJhslqlh
aptGnKYwuoRjmvN94pWeHrvUlwkWfEtcUZYhUyElFiOM1mwWI5PJ/XY+wQg8bJrH
G2tGWbji5LQ90ZCOBYzBuJBFHq0FBESE7pH2QEXr31pc9PwjtdOqMUT6e/f8h9E5
FSt+GV4YXUWrMAAT4t3Sg/BtwcT9xrhTXZEjiog9YJfAUPWwJ7XCU5pV8MJcKOqv
T+rjs84W6WCXDPJZfUY5G3S2jwmGNbo/mrVOcuV7mSkHRnSMpddBcgGR1X9AlAT3
lbj4/ZnsOpl/3ztx1fpNGPIZhbOiKyGb1CehO4XOZ+jlZl5r
-----END CERTIFICATE-----
